; Function Attrs: nounwind uwtable
define internal ptr @netlink_reachable(ptr noundef %0, ptr noundef %1) #1 {
  %3 = alloca [128 x i8], align 16
  %4 = alloca [128 x i8], align 16
  %5 = alloca i32, align 4
  %6 = getelementptr inbounds nuw i8, ptr %0, i64 264
  %7 = load volatile i64, ptr %6, align 8, !tbaa !7
  %8 = trunc i64 %7 to i32
  %9 = getelementptr inbounds nuw i8, ptr %1, i64 264
  %10 = load volatile i64, ptr %9, align 8, !tbaa !7
  %11 = trunc i64 %10 to i32
  %12 = tail call ptr @prte_reachable_allocate(i32 noundef %8, i32 noundef %11) #6
  %13 = icmp eq ptr %12, null
  br i1 %13, label %.loopexit, label %14

14:                                               ; preds = %2
  %15 = getelementptr inbounds nuw i8, ptr %0, i64 120
  %16 = getelementptr inbounds nuw i8, ptr %0, i64 240
  %.01929 = load ptr, ptr %16, align 8, !tbaa !16
  %.not30 = icmp eq ptr %.01929, %15
  br i1 %.not30, label %.loopexit, label %.lr.ph34

.lr.ph34:                                         ; preds = %14
  %17 = getelementptr inbounds nuw i8, ptr %1, i64 120
  %18 = getelementptr inbounds nuw i8, ptr %1, i64 240
  %19 = getelementptr inbounds nuw i8, ptr %3, i64 127
  %20 = getelementptr inbounds nuw i8, ptr %4, i64 127
  %21 = getelementptr inbounds nuw i8, ptr %12, i64 128
  %22 = load ptr, ptr %18, align 8, !tbaa !16
  %23 = icmp eq ptr %22, %17
  br i1 %23, label %.loopexit, label %.lr.ph34.split

.lr.ph34.split:                                   ; preds = %.lr.ph34, %._crit_edge
  %indvars.iv37 = phi i64 [ %indvars.iv.next38, %._crit_edge ], [ 0, %.lr.ph34 ]
  %.01932 = phi ptr [ %.019, %._crit_edge ], [ %.01929, %.lr.ph34 ]
  %.025 = load ptr, ptr %18, align 8, !tbaa !16
  %.not2426 = icmp eq ptr %.025, %17
  br i1 %.not2426, label %._crit_edge, label %.lr.ph

.lr.ph:                                           ; preds = %.lr.ph34.split
  %24 = getelementptr inbounds nuw i8, ptr %.01932, i64 424
  %25 = getelementptr inbounds nuw i8, ptr %.01932, i64 410
  %26 = getelementptr inbounds nuw i8, ptr %.01932, i64 428
  %27 = getelementptr inbounds nuw i8, ptr %.01932, i64 408
  %28 = getelementptr inbounds nuw i8, ptr %.01932, i64 556
  br label %29

29:                                               ; preds = %.lr.ph, %get_weights.exit
  %indvars.iv = phi i64 [ 0, %.lr.ph ], [ %indvars.iv.next, %get_weights.exit ]
  %.028 = phi ptr [ %.025, %.lr.ph ], [ %.0, %get_weights.exit ]
  call void @llvm.lifetime.start.p0(i64 128, ptr nonnull %3) #6
  call void @llvm.lifetime.start.p0(i64 128, ptr nonnull %4) #6
  call void @llvm.lifetime.start.p0(i64 4, ptr nonnull %5) #6
  %30 = call ptr @pmix_net_get_hostname(ptr noundef nonnull %24) #6
  call void @pmix_string_copy(ptr noundef nonnull %3, ptr noundef %30, i64 noundef 128) #6
  store i8 0, ptr %19, align 1, !tbaa !17
  %31 = getelementptr inbounds nuw i8, ptr %.028, i64 424
  %32 = call ptr @pmix_net_get_hostname(ptr noundef nonnull %31) #6
  call void @pmix_string_copy(ptr noundef nonnull %4, ptr noundef %32, i64 noundef 128) #6
  store i8 0, ptr %20, align 1, !tbaa !17
  %33 = load i16, ptr %25, align 2, !tbaa !18
  %34 = icmp eq i16 %33, 2
  br i1 %34, label %35, label %83

35:                                               ; preds = %29
  %36 = getelementptr inbounds nuw i8, ptr %.028, i64 410
  %37 = load i16, ptr %36, align 2, !tbaa !18
  %38 = icmp eq i16 %37, 2
  br i1 %38, label %39, label %83

39:                                               ; preds = %35
  %40 = load i32, ptr %26, align 4, !tbaa !22
  %41 = getelementptr inbounds nuw i8, ptr %.028, i64 428
  %42 = load i32, ptr %41, align 4, !tbaa !22
  %43 = icmp eq i32 %40, %42
  br i1 %43, label %44, label %58

44:                                               ; preds = %39
  %45 = load i32, ptr %28, align 4, !tbaa !25
  %46 = getelementptr inbounds nuw i8, ptr %.028, i64 556
  %47 = load i32, ptr %46, align 4, !tbaa !25
  %48 = call i32 @llvm.smin.i32(i32 %45, i32 %47)
  %49 = sitofp i32 %48 to double
  %50 = sub nsw i32 %45, %47
  %51 = call i32 @llvm.abs.i32(i32 %50, i1 true)
  %52 = add nuw i32 %51, 1
  %53 = uitofp i32 %52 to double
  %54 = fdiv double 1.000000e+00, %53
  %55 = fadd double %54, %49
  %56 = fmul double %55, 1.000000e+02
  %57 = fptosi double %56 to i32
  br label %83

58:                                               ; preds = %39
  %59 = load i16, ptr %27, align 8, !tbaa !26
  %60 = zext i16 %59 to i32
  %61 = call i32 @prte_reachable_netlink_rt_lookup(i32 noundef %40, i32 noundef %42, i32 noundef %60, ptr noundef nonnull %5) #6
  %62 = icmp eq i32 %61, 0
  br i1 %62, label %63, label %83

63:                                               ; preds = %58
  %64 = load i32, ptr %5, align 4, !tbaa !3
  %65 = icmp eq i32 %64, 0
  %66 = load i32, ptr %28, align 4, !tbaa !25
  %67 = getelementptr inbounds nuw i8, ptr %.028, i64 556
  %68 = load i32, ptr %67, align 4, !tbaa !25
  %69 = call i32 @llvm.smin.i32(i32 %66, i32 %68)
  %70 = sitofp i32 %69 to double
  %71 = sub nsw i32 %66, %68
  %72 = call i32 @llvm.abs.i32(i32 %71, i1 true)
  %73 = add nuw i32 %72, 1
  %74 = uitofp i32 %73 to double
  %75 = fdiv double 1.000000e+00, %74
  %76 = fadd double %75, %70
  br i1 %65, label %77, label %80

77:                                               ; preds = %63
  %78 = fmul double %76, 1.000000e+02
  %79 = fptosi double %78 to i32
  br label %83

80:                                               ; preds = %63
  %81 = fmul double %76, 5.000000e+01
  %82 = fptosi double %81 to i32
  br label %83

83:                                               ; preds = %80, %77, %58, %44, %35, %29
  %.227.i = phi i32 [ %57, %44 ], [ %79, %77 ], [ %82, %80 ], [ 0, %58 ], [ 0, %35 ], [ 0, %29 ]
  %.2.i = phi ptr [ @.str, %44 ], [ @.str, %77 ], [ @.str.1, %80 ], [ @.str.2, %58 ], [ @.str.3, %35 ], [ @.str.3, %29 ]
  %84 = load i32, ptr getelementptr inbounds nuw (i8, ptr @prte_prtereachable_base_framework, i64 76), align 4, !tbaa !27
  %or.cond.i = icmp ult i32 %84, 64
  br i1 %or.cond.i, label %85, label %get_weights.exit

85:                                               ; preds = %83
  %86 = zext nneg i32 %84 to i64
  %87 = getelementptr inbounds nuw [0 x %struct.pmix_output_desc_t], ptr @pmix_output_info, i64 0, i64 %86, i32 2
  %88 = load i32, ptr %87, align 4, !tbaa !31
  %89 = icmp sgt i32 %88, 19
  br i1 %89, label %90, label %get_weights.exit

90:                                               ; preds = %85
  call void (i32, ptr, ...) @pmix_output(i32 noundef %84, ptr noundef nonnull @.str.4, ptr noundef nonnull %3, ptr noundef nonnull %4, ptr noundef nonnull %.2.i) #6
  br label %get_weights.exit

get_weights.exit:                                 ; preds = %83, %85, %90
  call void @llvm.lifetime.end.p0(i64 4, ptr nonnull %5) #6
  call void @llvm.lifetime.end.p0(i64 128, ptr nonnull %4) #6
  call void @llvm.lifetime.end.p0(i64 128, ptr nonnull %3) #6
  %91 = load ptr, ptr %21, align 8, !tbaa !34
  %92 = getelementptr inbounds nuw ptr, ptr %91, i64 %indvars.iv37
  %93 = load ptr, ptr %92, align 8, !tbaa !37
  %94 = getelementptr inbounds nuw i32, ptr %93, i64 %indvars.iv
  store i32 %.227.i, ptr %94, align 4, !tbaa !3
  %indvars.iv.next = add nuw nsw i64 %indvars.iv, 1
  %95 = getelementptr inbounds nuw i8, ptr %.028, i64 120
  %.0 = load ptr, ptr %95, align 8, !tbaa !16
  %.not24 = icmp eq ptr %.0, %17
  br i1 %.not24, label %._crit_edge, label %29, !llvm.loop !39

._crit_edge:                                      ; preds = %get_weights.exit, %.lr.ph34.split
  %indvars.iv.next38 = add nuw nsw i64 %indvars.iv37, 1
  %96 = getelementptr inbounds nuw i8, ptr %.01932, i64 120
  %.019 = load ptr, ptr %96, align 8, !tbaa !16
  %.not = icmp eq ptr %.019, %15
  br i1 %.not, label %.loopexit, label %.lr.ph34.split, !llvm.loop !41

.loopexit:                                        ; preds = %._crit_edge, %.lr.ph34, %14, %2
  ret ptr %12
}